; Function Attrs: mustprogress nofree norecurse nounwind willreturn uwtable
define internal void @_ZNK19OpenColorIO_v2_4dev12_GLOBAL__N_19CDLWriter5getOpEv(ptr noalias nocapture writeonly sret(%"class.std::shared_ptr.28") align 8 %agg.result, ptr nocapture noundef nonnull readonly align 8 dereferenceable(40) %this) unnamed_addr #13 align 2 personality ptr @__gxx_personality_v0 {
entry:
  %m_cdl = getelementptr inbounds i8, ptr %this, i64 24
  %0 = load ptr, ptr %m_cdl, align 8
  store ptr %0, ptr %agg.result, align 8
  %_M_refcount.i.i = getelementptr inbounds i8, ptr %agg.result, i64 8
  %_M_refcount3.i.i = getelementptr inbounds i8, ptr %this, i64 32
  %1 = load ptr, ptr %_M_refcount3.i.i, align 8
  store ptr %1, ptr %_M_refcount.i.i, align 8
  %cmp.not.i.i.i = icmp eq ptr %1, null
  br i1 %cmp.not.i.i.i, label %_ZNSt10shared_ptrIKN19OpenColorIO_v2_4dev6OpDataEEC2IKNS0_9CDLOpDataEvEERKS_IT_E.exit, label %if.then.i.i.i

if.then.i.i.i:                                    ; preds = %entry
  %_M_use_count.i.i.i.i = getelementptr inbounds i8, ptr %1, i64 8
  %2 = load i8, ptr @__libc_single_threaded, align 1
  %tobool.i.not.i.i.i.i = icmp eq i8 %2, 0
  br i1 %tobool.i.not.i.i.i.i, label %if.else.i.i.i.i.i, label %if.then.i.i.i.i.i

if.then.i.i.i.i.i:                                ; preds = %if.then.i.i.i
  %3 = load i32, ptr %_M_use_count.i.i.i.i, align 4
  %add.i.i.i.i.i = add nsw i32 %3, 1
  store i32 %add.i.i.i.i.i, ptr %_M_use_count.i.i.i.i, align 4
  br label %_ZNSt10shared_ptrIKN19OpenColorIO_v2_4dev6OpDataEEC2IKNS0_9CDLOpDataEvEERKS_IT_E.exit

if.else.i.i.i.i.i:                                ; preds = %if.then.i.i.i
  %4 = atomicrmw volatile add ptr %_M_use_count.i.i.i.i, i32 1 acq_rel, align 4
  br label %_ZNSt10shared_ptrIKN19OpenColorIO_v2_4dev6OpDataEEC2IKNS0_9CDLOpDataEvEERKS_IT_E.exit

_ZNSt10shared_ptrIKN19OpenColorIO_v2_4dev6OpDataEEC2IKNS0_9CDLOpDataEvEERKS_IT_E.exit: ; preds = %entry, %if.then.i.i.i.i.i, %if.else.i.i.i.i.i
  ret void
}